(lp0
V10011
p1
aV1002
p2
aV10022
p3
aV10023
p4
aV10027
p5
aV10041
p6
aV10046
p7
aV10048
p8
aV10051
p9
aV10054
p10
aV10057
p11
aV10074
p12
aV10088
p13
aV10104
p14
aV10107
p15
aV10124
p16
aV10127
p17
aV10131
p18
aV10132
p19
aV10150
p20
aV10169
p21
aV1017
p22
aV10170
p23
aV10185
p24
aV10214
p25
aV10217
p26
aV10233
p27
aV10265
p28
aV10274
p29
aV10393
p30
aV10429
p31
aV10436
p32
aV10445
p33
aV10451
p34
aV10457
p35
aV10467
p36
aV10475
p37
aV10480
p38
aV10486
p39
aV10496
p40
aV10498
p41
aV10499
p42
aV10500
p43
aV10502
p44
aV10527
p45
aV10536
p46
aV10538
p47
aV10549
p48
aV10568
p49
aV10572
p50
aV10643
p51
aV10814
p52
aV10817
p53
aV10828
p54
aV10840
p55
aV10841
p56
aV10843
p57
aV10845
p58
aV10848
p59
aV10849
p60
aV10863
p61
aV10865
p62
aV10866
p63
aV10870
p64
aV10876
p65
aV10883
p66
aV10886
p67
aV10895
p68
aV10896
p69
aV10923
p70
aV10976
p71
aV10982
p72
aV10983
p73
aV10987
p74
aV11022
p75
aV11026
p76
aV11039
p77
aV11042
p78
aV11043
p79
aV11049
p80
aV11077
p81
aV11083
p82
aV111
p83
aV11137
p84
aV11161
p85
aV11168
p86
aV11185
p87
aV11188
p88
aV11189
p89
aV11225
p90
aV11231
p91
aV11233
p92
aV11234
p93
aV11237
p94
aV11239
p95
aV11253
p96
aV11274
p97
aV11275
p98
aV11279
p99
aV11288
p100
aV11348
p101
aV11383
p102
aV11390
p103
aV11391
p104
aV11398
p105
aV11399
p106
aV11400
p107
aV11401
p108
aV11402
p109
aV11412
p110
aV11425
p111
aV11439
p112
aV11440
p113
aV11444
p114
aV11484
p115
aV11486
p116
aV11500
p117
aV11501
p118
aV11561
p119
aV11567
p120
aV11606
p121
aV11626
p122
aV11711
p123
aV11715
p124
aV11764
p125
aV11775
p126
aV11777
p127
aV11859
p128
aV12039
p129
aV12042
p130
aV12043
p131
aV12057
p132
aV12061
p133
aV12070
p134
aV12075
p135
aV12084
p136
aV12088
p137
aV12089
p138
aV12125
p139
aV12126
p140
aV12128
p141
aV12147
p142
aV12150
p143
aV12158
p144
aV12159
p145
aV12163
p146
aV12172
p147
aV12176
p148
aV12177
p149
aV12182
p150
aV12183
p151
aV12187
p152
aV12190
p153
aV12199
p154
aV12218
p155
aV12242
p156
aV12245
p157
aV12252
p158
aV12255
p159
aV12257
p160
aV12267
p161
aV12281
p162
aV12284
p163
aV12291
p164
aV12303
p165
aV12306
p166
aV12312
p167
aV12320
p168
aV12327
p169
aV12333
p170
aV12338
p171
aV12339
p172
aV12340
p173
aV12341
p174
aV12344
p175
aV12348
p176
aV12387
p177
aV12390
p178
aV12395
p179
aV12402
p180
aV1242
p181
aV12425
p182
aV12447
p183
aV126
p184
aV1263
p185
aV1277
p186
aV12789
p187
aV12792
p188
aV12856
p189
aV1288
p190
aV13029
p191
aV1303
p192
aV13098
p193
aV1313
p194
aV13130
p195
aV13133
p196
aV13161
p197
aV1320
p198
aV13201
p199
aV1321
p200
aV13225
p201
aV13232
p202
aV13235
p203
aV13241
p204
aV13243
p205
aV1329
p206
aV133
p207
aV1332
p208
aV1336
p209
aV1338
p210
aV1339
p211
aV13405
p212
aV13436
p213
aV1344
p214
aV1345
p215
aV1348
p216
aV1350
p217
aV1352
p218
aV13560
p219
aV13576
p220
aV13591
p221
aV13596
p222
aV1360
p223
aV13606
p224
aV13608
p225
aV13610
p226
aV13611
p227
aV1362
p228
aV13638
p229
aV13649
p230
aV13659
p231
aV13660
p232
aV13678
p233
aV1369
p234
aV13701
p235
aV13702
p236
aV13705
p237
aV13721
p238
aV1373
p239
aV13735
p240
aV13746
p241
aV13773
p242
aV13774
p243
aV13791
p244
aV13800
p245
aV1381
p246
aV13823
p247
aV13831
p248
aV1386
p249
aV1387
p250
aV13875
p251
aV1388
p252
aV1389
p253
aV13890
p254
aV1390
p255
aV1392
p256
aV13961
p257
aV13963
p258
aV13968
p259
aV13970
p260
aV13974
p261
aV14004
p262
aV1401
p263
aV1403
p264
aV1404
p265
aV1406
p266
aV1407
p267
aV14089
p268
aV14118
p269
aV1416
p270
aV1417
p271
aV1420
p272
aV1421
p273
aV1425
p274
aV1426
p275
aV1429
p276
aV1431
p277
aV14324
p278
aV14326
p279
aV14384
p280
aV14388
p281
aV1441
p282
aV1442
p283
aV1445
p284
aV14498
p285
aV14561
p286
aV1460
p287
aV14611
p288
aV14612
p289
aV1464
p290
aV1473
p291
aV14776
p292
aV1481
p293
aV1482
p294
aV1485
p295
aV1486
p296
aV15
p297
aV1501
p298
aV1502
p299
aV1503
p300
aV1506
p301
aV1507
p302
aV1509
p303
aV1511
p304
aV1512
p305
aV1513
p306
aV1517
p307
aV1521
p308
aV1525
p309
aV1526
p310
aV1527
p311
aV1530
p312
aV1531
p313
aV1532
p314
aV1533
p315
aV1534
p316
aV1536
p317
aV1538
p318
aV1541
p319
aV1542
p320
aV1552
p321
aV1561
p322
aV15652
p323
aV15654
p324
aV15689
p325
aV15709
p326
aV15710
p327
aV15720
p328
aV15721
p329
aV15722
p330
aV15723
p331
aV15738
p332
aV15781
p333
aV15791
p334
aV15793
p335
aV15794
p336
aV15807
p337
aV1581
p338
aV15899
p339
aV1593
p340
aV15982
p341
aV15993
p342
aV16
p343
aV16004
p344
aV16006
p345
aV16027
p346
aV16038
p347
aV16054
p348
aV16058
p349
aV16066
p350
aV16098
p351
aV16124
p352
aV16133
p353
aV16157
p354
aV16158
p355
aV16159
p356
aV16169
p357
aV1617
p358
aV1618
p359
aV16208
p360
aV16209
p361
aV16210
p362
aV16212
p363
aV16215
p364
aV16217
p365
aV16218
p366
aV16220
p367
aV16221
p368
aV16222
p369
aV16223
p370
aV16225
p371
aV16226
p372
aV16228
p373
aV16229
p374
aV16231
p375
aV16232
p376
aV16234
p377
aV16235
p378
aV16236
p379
aV16237
p380
aV16238
p381
aV16239
p382
aV1624
p383
aV16241
p384
aV16242
p385
aV16243
p386
aV16244
p387
aV16245
p388
aV16246
p389
aV16248
p390
aV16251
p391
aV16255
p392
aV16256
p393
aV16257
p394
aV16258
p395
aV16259
p396
aV16260
p397
aV16261
p398
aV16262
p399
aV16266
p400
aV16268
p401
aV16272
p402
aV16276
p403
aV16278
p404
aV16281
p405
aV16282
p406
aV16284
p407
aV16287
p408
aV16289
p409
aV1629
p410
aV16291
p411
aV16293
p412
aV16294
p413
aV16296
p414
aV1630
p415
aV1631
p416
aV16311
p417
aV16312
p418
aV16313
p419
aV16317
p420
aV16318
p421
aV16319
p422
aV1632
p423
aV16323
p424
aV1633
p425
aV16337
p426
aV16339
p427
aV16340
p428
aV16344
p429
aV16347
p430
aV16348
p431
aV16350
p432
aV16351
p433
aV16352
p434
aV16358
p435
aV1636
p436
aV16360
p437
aV16365
p438
aV16366
p439
aV1637
p440
aV16370
p441
aV16373
p442
aV16377
p443
aV16378
p444
aV16379
p445
aV16380
p446
aV16381
p447
aV16382
p448
aV16383
p449
aV16384
p450
aV16385
p451
aV16386
p452
aV16387
p453
aV16388
p454
aV16389
p455
aV1639
p456
aV16390
p457
aV16391
p458
aV16392
p459
aV16393
p460
aV16394
p461
aV16395
p462
aV16396
p463
aV16397
p464
aV16398
p465
aV16399
p466
aV1640
p467
aV16400
p468
aV16401
p469
aV16402
p470
aV16403
p471
aV16404
p472
aV16405
p473
aV16406
p474
aV16407
p475
aV16408
p476
aV16409
p477
aV16410
p478
aV16411
p479
aV16412
p480
aV16413
p481
aV16414
p482
aV16415
p483
aV16416
p484
aV16417
p485
aV16418
p486
aV16419
p487
aV1642
p488
aV16420
p489
aV16421
p490
aV16422
p491
aV16423
p492
aV16424
p493
aV16426
p494
aV16427
p495
aV16428
p496
aV16429
p497
aV16431
p498
aV1644
p499
aV16442
p500
aV1646
p501
aV1648
p502
aV1649
p503
aV16490
p504
aV1650
p505
aV1651
p506
aV16516
p507
aV1652
p508
aV1654
p509
aV1656
p510
aV1657
p511
aV1658
p512
aV1660
p513
aV1661
p514
aV16642
p515
aV1665
p516
aV16665
p517
aV1668
p518
aV1669
p519
aV1670
p520
aV16717
p521
aV16722
p522
aV16780
p523
aV16784
p524
aV1681
p525
aV1682
p526
aV1683
p527
aV1684
p528
aV16846
p529
aV1685
p530
aV1686
p531
aV1687
p532
aV16872
p533
aV16874
p534
aV16876
p535
aV16881
p536
aV1690
p537
aV1691
p538
aV1692
p539
aV16926
p540
aV1695
p541
aV1701
p542
aV1702
p543
aV1707
p544
aV17074
p545
aV1709
p546
aV1710
p547
aV17105
p548
aV1713
p549
aV1714
p550
aV1718
p551
aV1722
p552
aV17226
p553
aV17228
p554
aV1726
p555
aV17263
p556
aV1728
p557
aV17282
p558
aV17315
p559
aV1735
p560
aV17388
p561
aV17394
p562
aV17406
p563
aV1742
p564
aV17471
p565
aV17472
p566
aV17473
p567
aV17477
p568
aV17479
p569
aV1748
p570
aV17482
p571
aV17484
p572
aV17489
p573
aV17491
p574
aV17500
p575
aV17501
p576
aV17502
p577
aV17503
p578
aV17507
p579
aV17508
p580
aV17509
p581
aV17510
p582
aV17511
p583
aV17514
p584
aV17526
p585
aV17528
p586
aV17529
p587
aV17534
p588
aV17562
p589
aV1757
p590
aV17572
p591
aV17573
p592
aV17574
p593
aV17576
p594
aV17581
p595
aV1759
p596
aV17600
p597
aV17614
p598
aV17617
p599
aV17618
p600
aV17621
p601
aV17625
p602
aV17656
p603
aV17657
p604
aV17660
p605
aV17661
p606
aV17664
p607
aV17666
p608
aV17667
p609
aV17668
p610
aV1767
p611
aV17671
p612
aV17673
p613
aV17674
p614
aV17675
p615
aV17677
p616
aV17679
p617
aV17682
p618
aV17707
p619
aV17708
p620
aV17757
p621
aV17946
p622
aV17955
p623
aV17956
p624
aV17964
p625
aV17969
p626
aV17970
p627
aV17976
p628
aV17977
p629
aV17979
p630
aV17981
p631
aV17987
p632
aV17988
p633
aV17989
p634
aV18005
p635
aV18006
p636
aV18058
p637
aV18060
p638
aV18071
p639
aV18087
p640
aV18094
p641
aV18111
p642
aV18114
p643
aV18117
p644
aV18129
p645
aV18159
p646
aV18164
p647
aV18166
p648
aV18170
p649
aV18173
p650
aV18177
p651
aV18180
p652
aV18193
p653
aV18195
p654
aV182
p655
aV18202
p656
aV18209
p657
aV18213
p658
aV18227
p659
aV18374
p660
aV18389
p661
aV18409
p662
aV18415
p663
aV18416
p664
aV18417
p665
aV18418
p666
aV18419
p667
aV18423
p668
aV18424
p669
aV18426
p670
aV18427
p671
aV18428
p672
aV18429
p673
aV18430
p674
aV18435
p675
aV18464
p676
aV18467
p677
aV18468
p678
aV18471
p679
aV18472
p680
aV18475
p681
aV18476
p682
aV18502
p683
aV18511
p684
aV18521
p685
aV18526
p686
aV18529
p687
aV18533
p688
aV18534
p689
aV18545
p690
aV18552
p691
aV18553
p692
aV18598
p693
aV1866
p694
aV18679
p695
aV18680
p696
aV18681
p697
aV18682
p698
aV18684
p699
aV18699
p700
aV18700
p701
aV18704
p702
aV18706
p703
aV18710
p704
aV18715
p705
aV18716
p706
aV18723
p707
aV18738
p708
aV18739
p709
aV18740
p710
aV18741
p711
aV18744
p712
aV18748
p713
aV18752
p714
aV18759
p715
aV18765
p716
aV18766
p717
aV18767
p718
aV18768
p719
aV18771
p720
aV18774
p721
aV18779
p722
aV18783
p723
aV18785
p724
aV18794
p725
aV18805
p726
aV18806
p727
aV18810
p728
aV18813
p729
aV1884
p730
aV18844
p731
aV18845
p732
aV18849
p733
aV18859
p734
aV18860
p735
aV18864
p736
aV18865
p737
aV18866
p738
aV18868
p739
aV18870
p740
aV18872
p741
aV18873
p742
aV18874
p743
aV18875
p744
aV18876
p745
aV18888
p746
aV18890
p747
aV18898
p748
aV18901
p749
aV18907
p750
aV18909
p751
aV18921
p752
aV18930
p753
aV18935
p754
aV18952
p755
aV18953
p756
aV18973
p757
aV19025
p758
aV19065
p759
aV19084
p760
aV19094
p761
aV19112
p762
aV19113
p763
aV19161
p764
aV19171
p765
aV19183
p766
aV19251
p767
aV19252
p768
aV19258
p769
aV19264
p770
aV19273
p771
aV19278
p772
aV19282
p773
aV19291
p774
aV19305
p775
aV19315
p776
aV19318
p777
aV19347
p778
aV19348
p779
aV19350
p780
aV19356
p781
aV19360
p782
aV19361
p783
aV19362
p784
aV1944
p785
aV1959
p786
aV19616
p787
aV1962
p788
aV19621
p789
aV19622
p790
aV19644
p791
aV197
p792
aV19808
p793
aV1996
p794
aV200
p795
aV20163
p796
aV20164
p797
aV20174
p798
aV20184
p799
aV20185
p800
aV20186
p801
aV20188
p802
aV20189
p803
aV20190
p804
aV20191
p805
aV20192
p806
aV20193
p807
aV20194
p808
aV20196
p809
aV20199
p810
aV20200
p811
aV20201
p812
aV20203
p813
aV20205
p814
aV20206
p815
aV20209
p816
aV20211
p817
aV20212
p818
aV20217
p819
aV20218
p820
aV2022
p821
aV20220
p822
aV20221
p823
aV20222
p824
aV20223
p825
aV20224
p826
aV20225
p827
aV20227
p828
aV20231
p829
aV20233
p830
aV20234
p831
aV20235
p832
aV20236
p833
aV20237
p834
aV20239
p835
aV20240
p836
aV20241
p837
aV20244
p838
aV20245
p839
aV20246
p840
aV20269
p841
aV20270
p842
aV20287
p843
aV20288
p844
aV20289
p845
aV20291
p846
aV20299
p847
aV20300
p848
aV20303
p849
aV20305
p850
aV20307
p851
aV20309
p852
aV20310
p853
aV20312
p854
aV20314
p855
aV20315
p856
aV20316
p857
aV20317
p858
aV20318
p859
aV20321
p860
aV20322
p861
aV20324
p862
aV20328
p863
aV20335
p864
aV20337
p865
aV20341
p866
aV20345
p867
aV20347
p868
aV20351
p869
aV20352
p870
aV20355
p871
aV20356
p872
aV20358
p873
aV20359
p874
aV20362
p875
aV20366
p876
aV20367
p877
aV20368
p878
aV20373
p879
aV20378
p880
aV20380
p881
aV20382
p882
aV20384
p883
aV20403
p884
aV20404
p885
aV20413
p886
aV20414
p887
aV20415
p888
aV20421
p889
aV20425
p890
aV20426
p891
aV20441
p892
aV20443
p893
aV20446
p894
aV20447
p895
aV20448
p896
aV20450
p897
aV20452
p898
aV20453
p899
aV20454
p900
aV20455
p901
aV20456
p902
aV20457
p903
aV20461
p904
aV20462
p905
aV20466
p906
aV20467
p907
aV20468
p908
aV20469
p909
aV20470
p910
aV20471
p911
aV20473
p912
aV20474
p913
aV20475
p914
aV20476
p915
aV20478
p916
aV20482
p917
aV20486
p918
aV20487
p919
aV20488
p920
aV20489
p921
aV20492
p922
aV20493
p923
aV20495
p924
aV20496
p925
aV20497
p926
aV2050
p927
aV20505
p928
aV20507
p929
aV20508
p930
aV20511
p931
aV20515
p932
aV20516
p933
aV20518
p934
aV20522
p935
aV20524
p936
aV20525
p937
aV20529
p938
aV20530
p939
aV20531
p940
aV20532
p941
aV20533
p942
aV20538
p943
aV20544
p944
aV20546
p945
aV20551
p946
aV20552
p947
aV20558
p948
aV20559
p949
aV20560
p950
aV2057
p951
aV20570
p952
aV20572
p953
aV20573
p954
aV20575
p955
aV20578
p956
aV20580
p957
aV20581
p958
aV20583
p959
aV20584
p960
aV20585
p961
aV20588
p962
aV20590
p963
aV20592
p964
aV20593
p965
aV20595
p966
aV20597
p967
aV20601
p968
aV20603
p969
aV20604
p970
aV20607
p971
aV20608
p972
aV2061
p973
aV20611
p974
aV20613
p975
aV20615
p976
aV20616
p977
aV20617
p978
aV20619
p979
aV20622
p980
aV20624
p981
aV20627
p982
aV20631
p983
aV20632
p984
aV20634
p985
aV20640
p986
aV20644
p987
aV20646
p988
aV20647
p989
aV20648
p990
aV20654
p991
aV20656
p992
aV20666
p993
aV20667
p994
aV2067
p995
aV20670
p996
aV20671
p997
aV20672
p998
aV20673
p999
aV20674
p1000
aV20676
p1001
aV20678
p1002
aV20679
p1003
aV20680
p1004
aV20681
p1005
aV20682
p1006
aV20684
p1007
aV20687
p1008
aV20688
p1009
aV20692
p1010
aV20694
p1011
aV20697
p1012
aV20698
p1013
aV20699
p1014
aV2070
p1015
aV20700
p1016
aV20701
p1017
aV20704
p1018
aV20707
p1019
aV20708
p1020
aV20709
p1021
aV2071
p1022
aV20716
p1023
aV20717
p1024
aV20719
p1025
aV20721
p1026
aV20724
p1027
aV20726
p1028
aV2073
p1029
aV20730
p1030
aV20731
p1031
aV20732
p1032
aV20734
p1033
aV20735
p1034
aV20737
p1035
aV20738
p1036
aV20739
p1037
aV20740
p1038
aV20741
p1039
aV20742
p1040
aV20743
p1041
aV20745
p1042
aV20746
p1043
aV20748
p1044
aV20751
p1045
aV20752
p1046
aV20761
p1047
aV2077
p1048
aV2078
p1049
aV20780
p1050
aV20781
p1051
aV20785
p1052
aV20792
p1053
aV20793
p1054
aV20802
p1055
aV20803
p1056
aV20805
p1057
aV20808
p1058
aV20813
p1059
aV20814
p1060
aV20816
p1061
aV20817
p1062
aV20819
p1063
aV20825
p1064
aV20829
p1065
aV20830
p1066
aV20831
p1067
aV20834
p1068
aV2084
p1069
aV20842
p1070
aV20846
p1071
aV20847
p1072
aV2085
p1073
aV20853
p1074
aV20854
p1075
aV20856
p1076
aV20859
p1077
aV20861
p1078
aV20862
p1079
aV20864
p1080
aV20865
p1081
aV2087
p1082
aV20873
p1083
aV20878
p1084
aV20879
p1085
aV20881
p1086
aV20888
p1087
aV2089
p1088
aV20890
p1089
aV20891
p1090
aV20893
p1091
aV20898
p1092
aV20901
p1093
aV20906
p1094
aV20913
p1095
aV20916
p1096
aV20924
p1097
aV20926
p1098
aV20934
p1099
aV20936
p1100
aV20944
p1101
aV20947
p1102
aV20950
p1103
aV20951
p1104
aV20953
p1105
aV20955
p1106
aV20962
p1107
aV20964
p1108
aV20965
p1109
aV20974
p1110
aV20975
p1111
aV20977
p1112
aV20978
p1113
aV20979
p1114
aV2098
p1115
aV20994
p1116
aV20999
p1117
aV21000
p1118
aV21002
p1119
aV21010
p1120
aV21011
p1121
aV21012
p1122
aV21013
p1123
aV21015
p1124
aV21024
p1125
aV21025
p1126
aV21026
p1127
aV21027
p1128
aV21029
p1129
aV21031
p1130
aV21032
p1131
aV21035
p1132
aV21036
p1133
aV21037
p1134
aV21038
p1135
aV21039
p1136
aV2104
p1137
aV21042
p1138
aV21046
p1139
aV21058
p1140
aV21061
p1141
aV21062
p1142
aV21065
p1143
aV21070
p1144
aV21071
p1145
aV21076
p1146
aV21078
p1147
aV2108
p1148
aV21082
p1149
aV21083
p1150
aV21084
p1151
aV21089
p1152
aV21091
p1153
aV21093
p1154
aV21094
p1155
aV21097
p1156
aV21098
p1157
aV21103
p1158
aV21117
p1159
aV2112
p1160
aV21122
p1161
aV21126
p1162
aV21130
p1163
aV2114
p1164
aV2116
p1165
aV21167
p1166
aV2118
p1167
aV21192
p1168
aV21193
p1169
aV21195
p1170
aV21196
p1171
aV2120
p1172
aV21202
p1173
aV21203
p1174
aV21209
p1175
aV21211
p1176
aV21212
p1177
aV21217
p1178
aV2125
p1179
aV21254
p1180
aV21255
p1181
aV2126
p1182
aV21263
p1183
aV21267
p1184
aV2127
p1185
aV21271
p1186
aV21275
p1187
aV21302
p1188
aV21316
p1189
aV21336
p1190
aV21337
p1191
aV21344
p1192
aV21356
p1193
aV21409
p1194
aV2141
p1195
aV21411
p1196
aV21414
p1197
aV21429
p1198
aV2145
p1199
aV21452
p1200
aV21469
p1201
aV21474
p1202
aV21477
p1203
aV21480
p1204
aV2149
p1205
aV2150
p1206
aV21507
p1207
aV2151
p1208
aV21516
p1209
aV21534
p1210
aV2154
p1211
aV2155
p1212
aV21589
p1213
aV21593
p1214
aV2161
p1215
aV21640
p1216
aV21645
p1217
aV2165
p1218
aV21660
p1219
aV21663
p1220
aV21665
p1221
aV2167
p1222
aV21682
p1223
aV21687
p1224
aV21688
p1225
aV21690
p1226
aV21708
p1227
aV2173
p1228
aV21742
p1229
aV21746
p1230
aV21749
p1231
aV21751
p1232
aV21754
p1233
aV21757
p1234
aV21758
p1235
aV21762
p1236
aV21767
p1237
aV21775
p1238
aV21778
p1239
aV21784
p1240
aV21785
p1241
aV21788
p1242
aV21796
p1243
aV2180
p1244
aV2181
p1245
aV21818
p1246
aV21820
p1247
aV21826
p1248
aV21879
p1249
aV21881
p1250
aV21883
p1251
aV21886
p1252
aV21896
p1253
aV21897
p1254
aV21898
p1255
aV21899
p1256
aV21953
p1257
aV2196
p1258
aV21965
p1259
aV21970
p1260
aV21974
p1261
aV2198
p1262
aV21991
p1263
aV21993
p1264
aV21994
p1265
aV21999
p1266
aV22002
p1267
aV22004
p1268
aV22005
p1269
aV22006
p1270
aV22007
p1271
aV22010
p1272
aV22011
p1273
aV22019
p1274
aV22020
p1275
aV22027
p1276
aV22039
p1277
aV22040
p1278
aV22041
p1279
aV22043
p1280
aV22056
p1281
aV22068
p1282
aV22069
p1283
aV22076
p1284
aV22077
p1285
aV22082
p1286
aV2209
p1287
aV22104
p1288
aV22106
p1289
aV22113
p1290
aV22117
p1291
aV22120
p1292
aV22129
p1293
aV2213
p1294
aV2214
p1295
aV22140
p1296
aV22141
p1297
aV2216
p1298
aV22241
p1299
aV22250
p1300
aV22263
p1301
aV22274
p1302
aV22275
p1303
aV2231
p1304
aV22318
p1305
aV2232
p1306
aV2235
p1307
aV2239
p1308
aV22415
p1309
aV22416
p1310
aV22418
p1311
aV2242
p1312
aV22439
p1313
aV22442
p1314
aV22447
p1315
aV2245
p1316
aV22450
p1317
aV2246
p1318
aV22460
p1319
aV22574
p1320
aV22575
p1321
aV2261
p1322
aV22644
p1323
aV2274
p1324
aV22755
p1325
aV22756
p1326
aV22758
p1327
aV22759
p1328
aV22764
p1329
aV22765
p1330
aV22766
p1331
aV22869
p1332
aV22880
p1333
aV22884
p1334
aV22909
p1335
aV22911
p1336
aV22918
p1337
aV22927
p1338
aV23002
p1339
aV23030
p1340
aV23031
p1341
aV23043
p1342
aV23047
p1343
aV23052
p1344
aV23057
p1345
aV23071
p1346
aV23112
p1347
aV23126
p1348
aV23152
p1349
aV23153
p1350
aV23155
p1351
aV23160
p1352
aV23161
p1353
aV23171
p1354
aV23174
p1355
aV23177
p1356
aV23178
p1357
aV23179
p1358
aV23181
p1359
aV23217
p1360
aV2323
p1361
aV23237
p1362
aV2324
p1363
aV2326
p1364
aV2327
p1365
aV23273
p1366
aV23274
p1367
aV2328
p1368
aV2329
p1369
aV2330
p1370
aV2332
p1371
aV23323
p1372
aV23330
p1373
aV23337
p1374
aV23338
p1375
aV23342
p1376
aV23383
p1377
aV23388
p1378
aV2339
p1379
aV23396
p1380
aV2340
p1381
aV23421
p1382
aV23451
p1383
aV23453
p1384
aV23464
p1385
aV23467
p1386
aV23472
p1387
aV23475
p1388
aV23476
p1389
aV23477
p1390
aV2348
p1391
aV2351
p1392
aV2352
p1393
aV2355
p1394
aV2356
p1395
aV2357
p1396
aV2359
p1397
aV2360
p1398
aV2361
p1399
aV2362
p1400
aV2363
p1401
aV237
p1402
aV2371
p1403
aV2373
p1404
aV2377
p1405
aV2383
p1406
aV2385
p1407
aV2389
p1408
aV2392
p1409
aV2395
p1410
aV23997
p1411
aV24031
p1412
aV24044
p1413
aV24057
p1414
aV2406
p1415
aV2412
p1416
aV24179
p1417
aV24230
p1418
aV24330
p1419
aV24383
p1420
aV24429
p1421
aV24511
p1422
aV24515
p1423
aV24575
p1424
aV246
p1425
aV24606
p1426
aV24670
p1427
aV24671
p1428
aV24672
p1429
aV24699
p1430
aV247
p1431
aV24711
p1432
aV24722
p1433
aV2477
p1434
aV2478
p1435
aV24826
p1436
aV24832
p1437
aV24837
p1438
aV24838
p1439
aV24850
p1440
aV24865
p1441
aV24867
p1442
aV24873
p1443
aV24905
p1444
aV2496
p1445
aV2497
p1446
aV2499
p1447
aV250
p1448
aV25014
p1449
aV25015
p1450
aV2503
p1451
aV2505
p1452
aV25071
p1453
aV25096
p1454
aV2510
p1455
aV25140
p1456
aV25158
p1457
aV25160
p1458
aV25192
p1459
aV25195
p1460
aV2520
p1461
aV25204
p1462
aV25209
p1463
aV25240
p1464
aV25241
p1465
aV253
p1466
aV25312
p1467
aV25313
p1468
aV2533
p1469
aV25370
p1470
aV25374
p1471
aV2541
p1472
aV25424
p1473
aV25442
p1474
aV2546
p1475
aV2549
p1476
aV25498
p1477
aV25499
p1478
aV25505
p1479
aV25508
p1480
aV25509
p1481
aV2551
p1482
aV25510
p1483
aV25515
p1484
aV25516
p1485
aV25518
p1486
aV25522
p1487
aV25527
p1488
aV25533
p1489
aV25535
p1490
aV25536
p1491
aV25537
p1492
aV25538
p1493
aV2554
p1494
aV25540
p1495
aV25546
p1496
aV25547
p1497
aV25549
p1498
aV25552
p1499
aV25554
p1500
aV25563
p1501
aV25580
p1502
aV25616
p1503
aV25662
p1504
aV25687
p1505
aV257
p1506
aV25845
p1507
aV2590
p1508
aV2591
p1509
aV25921
p1510
aV25929
p1511
aV2594
p1512
aV25940
p1513
aV25944
p1514
aV2595
p1515
aV2596
p1516
aV25974
p1517
aV25987
p1518
aV26001
p1519
aV2603
p1520
aV26049
p1521
aV2605
p1522
aV26059
p1523
aV2609
p1524
aV26100
p1525
aV26146
p1526
aV2619
p1527
aV26216
p1528
aV26248
p1529
aV26254
p1530
aV26260
p1531
aV26268
p1532
aV26269
p1533
aV2628
p1534
aV2633
p1535
aV26377
p1536
aV2640
p1537
aV2641
p1538
aV2642
p1539
aV2645
p1540
aV26450
p1541
aV26454
p1542
aV26458
p1543
aV26459
p1544
aV26479
p1545
aV265
p1546
aV2652
p1547
aV2653
p1548
aV26554
p1549
aV2656
p1550
aV26566
p1551
aV2658
p1552
aV2662
p1553
aV2663
p1554
aV2664
p1555
aV2666
p1556
aV2667
p1557
aV26706
p1558
aV26713
p1559
aV2672
p1560
aV2675
p1561
aV2676
p1562
aV26771
p1563
aV26772
p1564
aV2678
p1565
aV26807
p1566
aV26811
p1567
aV2685
p1568
aV2686
p1569
aV26872
p1570
aV26874
p1571
aV26881
p1572
aV2689
p1573
aV26902
p1574
aV26913
p1575
aV26943
p1576
aV26958
p1577
aV26968
p1578
aV2698
p1579
aV27026
p1580
aV27047
p1581
aV27054
p1582
aV27099
p1583
aV27108
p1584
aV27137
p1585
aV27176
p1586
aV27181
p1587
aV27182
p1588
aV27270
p1589
aV273
p1590
aV27302
p1591
aV27303
p1592
aV27308
p1593
aV27311
p1594
aV27325
p1595
aV27343
p1596
aV27352
p1597
aV27360
p1598
aV27363
p1599
aV27366
p1600
aV2740
p1601
aV27452
p1602
aV27453
p1603
aV27463
p1604
aV2748
p1605
aV2750
p1606
aV27507
p1607
aV27546
p1608
aV2756
p1609
aV27583
p1610
aV27619
p1611
aV27640
p1612
aV27682
p1613
aV2769
p1614
aV2772
p1615
aV2773
p1616
aV2775
p1617
aV2779
p1618
aV2780
p1619
aV27805
p1620
aV27810
p1621
aV2785
p1622
aV2787
p1623
aV2788
p1624
aV2793
p1625
aV2795
p1626
aV2798
p1627
aV27987
p1628
aV2800
p1629
aV2803
p1630
aV28032
p1631
aV2805
p1632
aV28058
p1633
aV28059
p1634
aV2806
p1635
aV2810
p1636
aV2811
p1637
aV2812
p1638
aV2815
p1639
aV2817
p1640
aV2819
p1641
aV2820
p1642
aV2823
p1643
aV28243
p1644
aV2825
p1645
aV2829
p1646
aV2833
p1647
aV28374
p1648
aV2845
p1649
aV2847
p1650
aV2850
p1651
aV2851
p1652
aV2852
p1653
aV2857
p1654
aV2858
p1655
aV2863
p1656
aV2864
p1657
aV2866
p1658
aV2871
p1659
aV2873
p1660
aV2877
p1661
aV2879
p1662
aV2881
p1663
aV2882
p1664
aV2883
p1665
aV2885
p1666
aV2886
p1667
aV2888
p1668
aV2899
p1669
aV2900
p1670
aV2903
p1671
aV2905
p1672
aV2931
p1673
aV2939
p1674
aV2940
p1675
aV2945
p1676
aV2958
p1677
aV2959
p1678
aV2960
p1679
aV2972
p1680
aV2976
p1681
aV2980
p1682
aV2988
p1683
aV3000
p1684
aV3024
p1685
aV306
p1686
aV308
p1687
aV3093
p1688
aV3103
p1689
aV3105
p1690
aV311
p1691
aV3119
p1692
aV3138
p1693
aV3139
p1694
aV3140
p1695
aV3141
p1696
aV3143
p1697
aV3144
p1698
aV319
p1699
aV3257
p1700
aV327
p1701
aV3281
p1702
aV3283
p1703
aV3306
p1704
aV3317
p1705
aV3328
p1706
aV3334
p1707
aV3340
p1708
aV3358
p1709
aV34
p1710
aV3452
p1711
aV3453
p1712
aV3464
p1713
aV3465
p1714
aV3466
p1715
aV3467
p1716
aV3468
p1717
aV3469
p1718
aV3471
p1719
aV3472
p1720
aV3474
p1721
aV3478
p1722
aV3494
p1723
aV3497
p1724
aV35
p1725
aV3500
p1726
aV3504
p1727
aV3507
p1728
aV3512
p1729
aV3513
p1730
aV3522
p1731
aV3524
p1732
aV3539
p1733
aV3547
p1734
aV3558
p1735
aV3562
p1736
aV3563
p1737
aV3566
p1738
aV3587
p1739
aV3588
p1740
aV3592
p1741
aV3599
p1742
aV3638
p1743
aV3639
p1744
aV3640
p1745
aV3641
p1746
aV3653
p1747
aV3656
p1748
aV3658
p1749
aV3663
p1750
aV3669
p1751
aV3683
p1752
aV3685
p1753
aV3686
p1754
aV3687
p1755
aV3688
p1756
aV3690
p1757
aV3692
p1758
aV3698
p1759
aV3701
p1760
aV3702
p1761
aV3703
p1762
aV3704
p1763
aV3706
p1764
aV3707
p1765
aV3709
p1766
aV3717
p1767
aV3718
p1768
aV3721
p1769
aV3722
p1770
aV3723
p1771
aV3724
p1772
aV3725
p1773
aV3726
p1774
aV3727
p1775
aV3728
p1776
aV3732
p1777
aV3733
p1778
aV3735
p1779
aV3748
p1780
aV3752
p1781
aV3758
p1782
aV3759
p1783
aV3767
p1784
aV3768
p1785
aV3769
p1786
aV3771
p1787
aV3775
p1788
aV3787
p1789
aV3788
p1790
aV3789
p1791
aV3793
p1792
aV3795
p1793
aV3797
p1794
aV3804
p1795
aV3807
p1796
aV3810
p1797
aV3811
p1798
aV3814
p1799
aV3816
p1800
aV3818
p1801
aV3819
p1802
aV3822
p1803
aV3823
p1804
aV3832
p1805
aV3843
p1806
aV3844
p1807
aV3851
p1808
aV3853
p1809
aV3857
p1810
aV3859
p1811
aV3860
p1812
aV3862
p1813
aV3864
p1814
aV3868
p1815
aV388
p1816
aV3886
p1817
aV3887
p1818
aV3898
p1819
aV3910
p1820
aV3914
p1821
aV3922
p1822
aV3937
p1823
aV3980
p1824
aV4004
p1825
aV4008
p1826
aV4016
p1827
aV4028
p1828
aV403
p1829
aV4040
p1830
aV4056
p1831
aV4058
p1832
aV4074
p1833
aV4078
p1834
aV4086
p1835
aV410
p1836
aV4118
p1837
aV4126
p1838
aV4133
p1839
aV4135
p1840
aV4140
p1841
aV4147
p1842
aV4151
p1843
aV4152
p1844
aV4161
p1845
aV4167
p1846
aV4175
p1847
aV4176
p1848
aV4181
p1849
aV4182
p1850
aV4183
p1851
aV419
p1852
aV4196
p1853
aV4198
p1854
aV4203
p1855
aV4207
p1856
aV4209
p1857
aV4211
p1858
aV4219
p1859
aV4220
p1860
aV4227
p1861
aV4229
p1862
aV4237
p1863
aV4240
p1864
aV4244
p1865
aV4246
p1866
aV4247
p1867
aV4248
p1868
aV4250
p1869
aV4252
p1870
aV4254
p1871
aV4258
p1872
aV4267
p1873
aV4269
p1874
aV4271
p1875
aV4273
p1876
aV4275
p1877
aV4279
p1878
aV4281
p1879
aV4283
p1880
aV4285
p1881
aV4286
p1882
aV4288
p1883
aV4292
p1884
aV4295
p1885
aV4297
p1886
aV4302
p1887
aV4305
p1888
aV4306
p1889
aV4310
p1890
aV4311
p1891
aV4313
p1892
aV4314
p1893
aV4315
p1894
aV4317
p1895
aV4318
p1896
aV4321
p1897
aV4335
p1898
aV4336
p1899
aV4339
p1900
aV4341
p1901
aV4342
p1902
aV4343
p1903
aV4357
p1904
aV4366
p1905
aV4370
p1906
aV4371
p1907
aV4372
p1908
aV4373
p1909
aV4377
p1910
aV4378
p1911
aV4380
p1912
aV4381
p1913
aV4383
p1914
aV4393
p1915
aV4395
p1916
aV4397
p1917
aV4399
p1918
aV440
p1919
aV4400
p1920
aV4405
p1921
aV4409
p1922
aV4410
p1923
aV4412
p1924
aV4416
p1925
aV4417
p1926
aV4419
p1927
aV4421
p1928
aV4425
p1929
aV4426
p1930
aV443
p1931
aV4431
p1932
aV4432
p1933
aV4434
p1934
aV4442
p1935
aV4444
p1936
aV445
p1937
aV4452
p1938
aV4455
p1939
aV4456
p1940
aV4457
p1941
aV4462
p1942
aV4463
p1943
aV4465
p1944
aV4467
p1945
aV4477
p1946
aV4490
p1947
aV4491
p1948
aV4492
p1949
aV4493
p1950
aV4496
p1951
aV4497
p1952
aV4499
p1953
aV450
p1954
aV4500
p1955
aV4504
p1956
aV451
p1957
aV4511
p1958
aV4516
p1959
aV4519
p1960
aV452
p1961
aV4520
p1962
aV4522
p1963
aV4527
p1964
aV4529
p1965
aV4534
p1966
aV4535
p1967
aV4537
p1968
aV4538
p1969
aV454
p1970
aV4544
p1971
aV4556
p1972
aV4557
p1973
aV4558
p1974
aV4559
p1975
aV4560
p1976
aV4571
p1977
aV4572
p1978
aV4574
p1979
aV4575
p1980
aV4577
p1981
aV4578
p1982
aV4579
p1983
aV4580
p1984
aV4582
p1985
aV4584
p1986
aV4586
p1987
aV4589
p1988
aV459
p1989
aV4600
p1990
aV4601
p1991
aV4602
p1992
aV4603
p1993
aV4607
p1994
aV4608
p1995
aV461
p1996
aV4615
p1997
aV4617
p1998
aV462
p1999
aV4620
p2000
aV4623
p2001
aV4634
p2002
aV4638
p2003
aV4649
p2004
aV4657
p2005
aV4663
p2006
aV4664
p2007
aV467
p2008
aV470
p2009
aV4706
p2010
aV4725
p2011
aV4737
p2012
aV4738
p2013
aV4784
p2014
aV4786
p2015
aV480
p2016
aV4808
p2017
aV4811
p2018
aV4817
p2019
aV4829
p2020
aV485
p2021
aV4876
p2022
aV4889
p2023
aV4934
p2024
aV4947
p2025
aV4954
p2026
aV4978
p2027
aV4979
p2028
aV4986
p2029
aV4991
p2030
aV4994
p2031
aV500
p2032
aV5007
p2033
aV5011
p2034
aV5012
p2035
aV5013
p2036
aV5015
p2037
aV5017
p2038
aV5019
p2039
aV502
p2040
aV5020
p2041
aV5021
p2042
aV5022
p2043
aV5030
p2044
aV5031
p2045
aV5036
p2046
aV5038
p2047
aV5044
p2048
aV5045
p2049
aV5048
p2050
aV5049
p2051
aV5051
p2052
aV5053
p2053
aV5058
p2054
aV5061
p2055
aV5065
p2056
aV5089
p2057
aV5092
p2058
aV5093
p2059
aV5103
p2060
aV5105
p2061
aV5106
p2062
aV5107
p2063
aV5108
p2064
aV5110
p2065
aV5111
p2066
aV5112
p2067
aV5121
p2068
aV5123
p2069
aV5129
p2070
aV5131
p2071
aV5133
p2072
aV5134
p2073
aV5135
p2074
aV5137
p2075
aV5139
p2076
aV5140
p2077
aV5143
p2078
aV5145
p2079
aV5147
p2080
aV5148
p2081
aV5149
p2082
aV5154
p2083
aV5159
p2084
aV5161
p2085
aV5163
p2086
aV5164
p2087
aV5169
p2088
aV5172
p2089
aV5173
p2090
aV5174
p2091
aV5176
p2092
aV5188
p2093
aV5190
p2094
aV5191
p2095
aV5195
p2096
aV5199
p2097
aV52
p2098
aV5201
p2099
aV5207
p2100
aV5212
p2101
aV5218
p2102
aV5219
p2103
aV5222
p2104
aV5224
p2105
aV5225
p2106
aV5233
p2107
aV5235
p2108
aV5236
p2109
aV5237
p2110
aV5241
p2111
aV5243
p2112
aV5244
p2113
aV5245
p2114
aV5253
p2115
aV5254
p2116
aV5258
p2117
aV5266
p2118
aV5267
p2119
aV5274
p2120
aV5278
p2121
aV5286
p2122
aV5294
p2123
aV5306
p2124
aV5314
p2125
aV5320
p2126
aV5324
p2127
aV5328
p2128
aV5332
p2129
aV5338
p2130
aV5346
p2131
aV5375
p2132
aV5376
p2133
aV5379
p2134
aV538
p2135
aV5383
p2136
aV5386
p2137
aV5389
p2138
aV5393
p2139
aV5394
p2140
aV5397
p2141
aV5398
p2142
aV5413
p2143
aV5414
p2144
aV5420
p2145
aV5429
p2146
aV544
p2147
aV5444
p2148
aV5445
p2149
aV5446
p2150
aV5454
p2151
aV5460
p2152
aV5462
p2153
aV5463
p2154
aV5465
p2155
aV5467
p2156
aV5475
p2157
aV5481
p2158
aV5482
p2159
aV5489
p2160
aV5491
p2161
aV5500
p2162
aV5509
p2163
aV5511
p2164
aV5515
p2165
aV5516
p2166
aV5520
p2167
aV5521
p2168
aV5522
p2169
aV5524
p2170
aV5528
p2171
aV5531
p2172
aV5542
p2173
aV5547
p2174
aV5552
p2175
aV5556
p2176
aV5557
p2177
aV5559
p2178
aV5562
p2179
aV5563
p2180
aV5566
p2181
aV5583
p2182
aV5587
p2183
aV5588
p2184
aV5591
p2185
aV5592
p2186
aV5593
p2187
aV5595
p2188
aV5596
p2189
aV5597
p2190
aV5616
p2191
aV5623
p2192
aV5630
p2193
aV565
p2194
aV5660
p2195
aV5665
p2196
aV5679
p2197
aV5680
p2198
aV5688
p2199
aV5749
p2200
aV5756
p2201
aV5764
p2202
aV5766
p2203
aV578
p2204
aV5791
p2205
aV5793
p2206
aV580
p2207
aV5803
p2208
aV5816
p2209
aV5818
p2210
aV5821
p2211
aV5824
p2212
aV5825
p2213
aV5828
p2214
aV5829
p2215
aV5831
p2216
aV5832
p2217
aV5838
p2218
aV5839
p2219
aV5848
p2220
aV5852
p2221
aV5855
p2222
aV5857
p2223
aV5861
p2224
aV5863
p2225
aV5869
p2226
aV5871
p2227
aV5872
p2228
aV5873
p2229
aV5877
p2230
aV5913
p2231
aV5916
p2232
aV5917
p2233
aV5931
p2234
aV5937
p2235
aV5952
p2236
aV5954
p2237
aV5958
p2238
aV5963
p2239
aV5966
p2240
aV5967
p2241
aV5971
p2242
aV5975
p2243
aV5976
p2244
aV5981
p2245
aV5988
p2246
aV5989
p2247
aV5997
p2248
aV6007
p2249
aV6010
p2250
aV6015
p2251
aV6021
p2252
aV6026
p2253
aV6027
p2254
aV6057
p2255
aV6059
p2256
aV615
p2257
aV616
p2258
aV618
p2259
aV621
p2260
aV623
p2261
aV6281
p2262
aV6282
p2263
aV6285
p2264
aV6286
p2265
aV6288
p2266
aV6289
p2267
aV629
p2268
aV6291
p2269
aV6294
p2270
aV6298
p2271
aV6300
p2272
aV6304
p2273
aV6305
p2274
aV6306
p2275
aV6307
p2276
aV6309
p2277
aV631
p2278
aV6311
p2279
aV6315
p2280
aV6328
p2281
aV6338
p2282
aV6344
p2283
aV6345
p2284
aV6346
p2285
aV6347
p2286
aV6349
p2287
aV6350
p2288
aV6373
p2289
aV6378
p2290
aV6379
p2291
aV6388
p2292
aV6391
p2293
aV6395
p2294
aV6397
p2295
aV6399
p2296
aV6420
p2297
aV6423
p2298
aV6425
p2299
aV6438
p2300
aV6441
p2301
aV6442
p2302
aV6443
p2303
aV6445
p2304
aV6446
p2305
aV6452
p2306
aV6459
p2307
aV6461
p2308
aV6466
p2309
aV6470
p2310
aV6474
p2311
aV6489
p2312
aV6490
p2313
aV6493
p2314
aV6494
p2315
aV6496
p2316
aV6497
p2317
aV6498
p2318
aV6503
p2319
aV6506
p2320
aV6522
p2321
aV6527
p2322
aV6531
p2323
aV6542
p2324
aV6543
p2325
aV6545
p2326
aV6549
p2327
aV6570
p2328
aV6595
p2329
aV6596
p2330
aV6598
p2331
aV6601
p2332
aV6607
p2333
aV6612
p2334
aV6625
p2335
aV6647
p2336
aV6705
p2337
aV6707
p2338
aV6713
p2339
aV6724
p2340
aV673
p2341
aV6746
p2342
aV6756
p2343
aV6767
p2344
aV6813
p2345
aV6818
p2346
aV682
p2347
aV6834
p2348
aV6849
p2349
aV6861
p2350
aV6895
p2351
aV6910
p2352
aV6917
p2353
aV6918
p2354
aV6922
p2355
aV6989
p2356
aV7036
p2357
aV7037
p2358
aV7040
p2359
aV7041
p2360
aV7044
p2361
aV7111
p2362
aV7120
p2363
aV7150
p2364
aV7167
p2365
aV7184
p2366
aV7187
p2367
aV7192
p2368
aV7193
p2369
aV7195
p2370
aV7234
p2371
aV7248
p2372
aV7263
p2373
aV7274
p2374
aV7290
p2375
aV7297
p2376
aV7302
p2377
aV7305
p2378
aV7308
p2379
aV7371
p2380
aV7380
p2381
aV7383
p2382
aV7405
p2383
aV7411
p2384
aV7427
p2385
aV7428
p2386
aV7429
p2387
aV7431
p2388
aV7432
p2389
aV7434
p2390
aV7441
p2391
aV7444
p2392
aV7452
p2393
aV7454
p2394
aV7503
p2395
aV7599
p2396
aV765
p2397
aV7767
p2398
aV7770
p2399
aV7777
p2400
aV7781
p2401
aV7783
p2402
aV7785
p2403
aV7789
p2404
aV7804
p2405
aV7807
p2406
aV7812
p2407
aV7818
p2408
aV7819
p2409
aV7822
p2410
aV7828
p2411
aV7834
p2412
aV7835
p2413
aV7842
p2414
aV7843
p2415
aV7846
p2416
aV7901
p2417
aV7902
p2418
aV7903
p2419
aV7910
p2420
aV7924
p2421
aV7980
p2422
aV8084
p2423
aV8127
p2424
aV8143
p2425
aV8243
p2426
aV8270
p2427
aV8287
p2428
aV8310
p2429
aV8314
p2430
aV8317
p2431
aV8336
p2432
aV8339
p2433
aV8361
p2434
aV8540
p2435
aV8558
p2436
aV8564
p2437
aV8573
p2438
aV858
p2439
aV8580
p2440
aV8601
p2441
aV8608
p2442
aV8609
p2443
aV861
p2444
aV8610
p2445
aV8611
p2446
aV8616
p2447
aV8619
p2448
aV8648
p2449
aV8742
p2450
aV8746
p2451
aV8752
p2452
aV8756
p2453
aV8760
p2454
aV8766
p2455
aV8817
p2456
aV8826
p2457
aV8868
p2458
aV8899
p2459
aV8921
p2460
aV8954
p2461
aV9030
p2462
aV9032
p2463
aV9033
p2464
aV9264
p2465
aV9289
p2466
aV9308
p2467
aV9319
p2468
aV9321
p2469
aV9341
p2470
aV9350
p2471
aV9353
p2472
aV9356
p2473
aV9358
p2474
aV9365
p2475
aV9376
p2476
aV9380
p2477
aV9396
p2478
aV9426
p2479
aV9445
p2480
aV9520
p2481
aV957
p2482
aV9602
p2483
aV9612
p2484
aV9615
p2485
aV9618
p2486
aV9686
p2487
aV97
p2488
aV9722
p2489
aV9725
p2490
aV9737
p2491
aV9759
p2492
aV9764
p2493
aV9797
p2494
aV9811
p2495
aV9830
p2496
aV9849
p2497
aV9858
p2498
aV9887
p2499
aV9941
p2500
aV9972
p2501
aV9976
p2502
a.